; Function Attrs: nounwind uwtable
define internal { i64, ptr } @f_contains(ptr readnone captures(none) %0, i64 %1, ptr %2, i64 %3, ptr %4) #0 {
  %6 = alloca [15 x i8], align 1
  %7 = alloca [15 x i8], align 1
  %8 = tail call i32 @jv_get_kind(i64 %1, ptr %2) #14
  %9 = tail call i32 @jv_get_kind(i64 %3, ptr %4) #14
  %10 = icmp eq i32 %8, %9
  br i1 %10, label %11, label %14

11:                                               ; preds = %5
  %12 = tail call i32 @jv_contains(i64 %1, ptr %2, i64 %3, ptr %4) #14
  %13 = tail call { i64, ptr } @jv_bool(i32 noundef %12) #14
  br label %25

14:                                               ; preds = %5
  call void @llvm.lifetime.start.p0(i64 15, ptr nonnull %6) #14
  call void @llvm.lifetime.start.p0(i64 15, ptr nonnull %7) #14
  %15 = tail call i32 @jv_get_kind(i64 %1, ptr %2) #14
  %16 = tail call ptr @jv_kind_name(i32 noundef %15) #14
  %17 = tail call i32 @jv_get_kind(i64 %3, ptr %4) #14
  %18 = tail call ptr @jv_kind_name(i32 noundef %17) #14
  %19 = call ptr @jv_dump_string_trunc(i64 %1, ptr %2, ptr noundef nonnull %6, i64 noundef 15) #14
  %20 = call ptr @jv_dump_string_trunc(i64 %3, ptr %4, ptr noundef nonnull %7, i64 noundef 15) #14
  %21 = call { i64, ptr } (ptr, ...) @jv_string_fmt(ptr noundef nonnull @.str.8, ptr noundef %16, ptr noundef %19, ptr noundef %18, ptr noundef %20, ptr noundef nonnull @.str.167) #14
  %22 = extractvalue { i64, ptr } %21, 0
  %23 = extractvalue { i64, ptr } %21, 1
  %24 = call { i64, ptr } @jv_invalid_with_msg(i64 %22, ptr %23) #14
  call void @llvm.lifetime.end.p0(i64 15, ptr nonnull %7) #14
  call void @llvm.lifetime.end.p0(i64 15, ptr nonnull %6) #14
  br label %25

25:                                               ; preds = %14, %11
  %.pn = phi { i64, ptr } [ %13, %11 ], [ %24, %14 ]
  ret { i64, ptr } %.pn
}